target datalayout = "e-m:e-p270:32:32-p271:32:32-p272:64:64-i64:64-i128:128-f80:128-n8:16:32:64-S128"
target triple = "x86_64-pc-linux-gnu"

%"struct.DwarfFile::LineNumberProgram::LineNumberProgramHeader" = type { i32, i16, i32, i8, i8, i8, i8, i8, i8, [12 x i8], i64 }
%"struct.DwarfFile::LineNumberProgram::LineNumberProgramState" = type { i64, i32, i32, i32, i32, i8, i8, i8, i8, i8, i32, i32, i16, i8, i8, i8, i8, i8, i8 }

; Function Attrs: mustprogress nounwind uwtable
define hidden void @_ZN9DwarfFile17LineNumberProgram22LineNumberProgramState18set_index_registerEjRKNS0_23LineNumberProgramHeaderE(ptr noundef nonnull align 8 dereferenceable(48) %0, i32 noundef %1, ptr noundef nonnull align 8 dereferenceable(40) %2) #1 align 2 {
  %4 = alloca ptr, align 8
  %5 = alloca i32, align 4
  %6 = alloca ptr, align 8
  store ptr %0, ptr %4, align 8
  store i32 %1, ptr %5, align 4
  store ptr %2, ptr %6, align 8
  %7 = load ptr, ptr %4, align 8
  %8 = getelementptr inbounds %"struct.DwarfFile::LineNumberProgram::LineNumberProgramState", ptr %7, i32 0, i32 1
  %9 = load i32, ptr %8, align 8
  %10 = load i32, ptr %5, align 4
  %11 = add i32 %9, %10
  %12 = load ptr, ptr %6, align 8
  %13 = getelementptr inbounds %"struct.DwarfFile::LineNumberProgram::LineNumberProgramHeader", ptr %12, i32 0, i32 4
  %14 = load i8, ptr %13, align 1
  %15 = zext i8 %14 to i32
  %16 = urem i32 %11, %15
  %17 = getelementptr inbounds %"struct.DwarfFile::LineNumberProgram::LineNumberProgramState", ptr %7, i32 0, i32 1
  store i32 %16, ptr %17, align 8
  ret void
}