; Function Attrs: mustprogress nofree norecurse nosync nounwind willreturn memory(argmem: readwrite) uwtable
define hidden void @_ZN9DwarfFile17LineNumberProgram22LineNumberProgramState18set_index_registerEjRKNS0_23LineNumberProgramHeaderE(ptr nocapture noundef nonnull align 8 dereferenceable(48) %0, i32 noundef %1, ptr nocapture noundef nonnull readonly align 8 dereferenceable(40) %2) local_unnamed_addr #8 align 2 {
  %4 = getelementptr inbounds i8, ptr %0, i64 8
  %5 = load i32, ptr %4, align 8
  %6 = add i32 %5, %1
  %7 = getelementptr inbounds i8, ptr %2, i64 13
  %8 = load i8, ptr %7, align 1
  %9 = zext i8 %8 to i32
  %10 = urem i32 %6, %9
  store i32 %10, ptr %4, align 8
  ret void
}